; Function Attrs: inlinehint mustprogress uwtable
define internal void @_ZZN9grpc_core14filters_detail9StackData12AddFinalizerINS_12_GLOBAL__N_122ServerCallTracerFilterEEEvPT_mMNS5_4CallEFvPK20grpc_call_final_infoEENUlPvSD_SA_E_8__invokeESD_SD_SA_(ptr readnone captures(none) %0, ptr readnone captures(none) %1, ptr noundef %2) #26 align 2 {
  %4 = tail call align 8 ptr @llvm.threadlocal.address.p0(ptr align 8 @_ZN9grpc_core14promise_detail18ThreadLocalContextINS_5ArenaEE8current_E)
  %5 = load ptr, ptr %4, align 8, !tbaa !60
  %6 = getelementptr inbounds nuw i8, ptr %5, i64 56
  %7 = load i16, ptr @_ZN9grpc_core12arena_detail18ArenaContextTraitsINS_19CallTracerInterfaceEE3id_E, align 2, !tbaa !21
  %8 = zext i16 %7 to i64
  %9 = getelementptr inbounds nuw ptr, ptr %6, i64 %8
  %10 = load ptr, ptr %9, align 8, !tbaa !28
  %11 = icmp eq ptr %10, null
  br i1 %11, label %_ZZN9grpc_core14filters_detail9StackData12AddFinalizerINS_12_GLOBAL__N_122ServerCallTracerFilterEEEvPT_mMNS5_4CallEFvPK20grpc_call_final_infoEENKUlPvSD_SA_E_clESD_SD_SA_.exit, label %12

12:                                               ; preds = %3
  %13 = load ptr, ptr %10, align 8, !tbaa !19
  %14 = getelementptr inbounds nuw i8, ptr %13, i64 160
  %15 = load ptr, ptr %14, align 8
  tail call void %15(ptr noundef nonnull align 8 dereferenceable(8) %10, ptr noundef %2)
  br label %_ZZN9grpc_core14filters_detail9StackData12AddFinalizerINS_12_GLOBAL__N_122ServerCallTracerFilterEEEvPT_mMNS5_4CallEFvPK20grpc_call_final_infoEENKUlPvSD_SA_E_clESD_SD_SA_.exit

_ZZN9grpc_core14filters_detail9StackData12AddFinalizerINS_12_GLOBAL__N_122ServerCallTracerFilterEEEvPT_mMNS5_4CallEFvPK20grpc_call_final_infoEENKUlPvSD_SA_E_clESD_SD_SA_.exit: ; preds = %3, %12
  ret void
}